target datalayout = "e-m:e-p270:32:32-p271:32:32-p272:64:64-i64:64-i128:128-f80:128-n8:16:32:64-S128"
target triple = "x86_64-pc-linux-gnu"

%struct.AVComplexFloat = type { float, float }

@ff_tx_tab_8192_float = global [2049 x float] zeroinitializer, align 16
@ff_tx_tab_16384_float = global [4097 x float] zeroinitializer, align 16

; Function Attrs: nounwind uwtable
define internal void @ff_tx_fft8192_ns_float_c(ptr noundef %0, ptr noundef %1, ptr noundef %2, i64 noundef %3) #4 {
  %5 = alloca ptr, align 8
  %6 = alloca ptr, align 8
  %7 = alloca ptr, align 8
  %8 = alloca i64, align 8
  %9 = alloca ptr, align 8
  %10 = alloca ptr, align 8
  %11 = alloca ptr, align 8
  store ptr %0, ptr %5, align 8, !tbaa !17
  store ptr %1, ptr %6, align 8, !tbaa !8
  store ptr %2, ptr %7, align 8, !tbaa !8
  store i64 %3, ptr %8, align 8, !tbaa !30
  call void @llvm.lifetime.start.p0(i64 8, ptr %9) #10
  %12 = load ptr, ptr %7, align 8, !tbaa !8
  store ptr %12, ptr %9, align 8, !tbaa !60
  call void @llvm.lifetime.start.p0(i64 8, ptr %10) #10
  %13 = load ptr, ptr %6, align 8, !tbaa !8
  store ptr %13, ptr %10, align 8, !tbaa !60
  call void @llvm.lifetime.start.p0(i64 8, ptr %11) #10
  store ptr @ff_tx_tab_8192_float, ptr %11, align 8, !tbaa !39
  %14 = load ptr, ptr %5, align 8, !tbaa !17
  %15 = load ptr, ptr %10, align 8, !tbaa !60
  %16 = load ptr, ptr %9, align 8, !tbaa !60
  %17 = load i64, ptr %8, align 8, !tbaa !30
  call void @ff_tx_fft4096_ns_float_c(ptr noundef %14, ptr noundef %15, ptr noundef %16, i64 noundef %17)
  %18 = load ptr, ptr %5, align 8, !tbaa !17
  %19 = load ptr, ptr %10, align 8, !tbaa !60
  %20 = getelementptr inbounds %struct.AVComplexFloat, ptr %19, i64 4096
  %21 = load ptr, ptr %9, align 8, !tbaa !60
  %22 = getelementptr inbounds %struct.AVComplexFloat, ptr %21, i64 4096
  %23 = load i64, ptr %8, align 8, !tbaa !30
  call void @ff_tx_fft2048_ns_float_c(ptr noundef %18, ptr noundef %20, ptr noundef %22, i64 noundef %23)
  %24 = load ptr, ptr %5, align 8, !tbaa !17
  %25 = load ptr, ptr %10, align 8, !tbaa !60
  %26 = getelementptr inbounds %struct.AVComplexFloat, ptr %25, i64 6144
  %27 = load ptr, ptr %9, align 8, !tbaa !60
  %28 = getelementptr inbounds %struct.AVComplexFloat, ptr %27, i64 6144
  %29 = load i64, ptr %8, align 8, !tbaa !30
  call void @ff_tx_fft2048_ns_float_c(ptr noundef %24, ptr noundef %26, ptr noundef %28, i64 noundef %29)
  %30 = load ptr, ptr %10, align 8, !tbaa !60
  %31 = load ptr, ptr %11, align 8, !tbaa !39
  call void @ff_tx_fft_sr_combine_float_c(ptr noundef %30, ptr noundef %31, i32 noundef 1024)
  call void @llvm.lifetime.end.p0(i64 8, ptr %11) #10
  call void @llvm.lifetime.end.p0(i64 8, ptr %10) #10
  call void @llvm.lifetime.end.p0(i64 8, ptr %9) #10
  ret void
}

; Function Attrs: nounwind uwtable
define internal void @ff_tx_fft16384_ns_float_c(ptr noundef %0, ptr noundef %1, ptr noundef %2, i64 noundef %3) #4 {
  %5 = alloca ptr, align 8
  %6 = alloca ptr, align 8
  %7 = alloca ptr, align 8
  %8 = alloca i64, align 8
  %9 = alloca ptr, align 8
  %10 = alloca ptr, align 8
  %11 = alloca ptr, align 8
  store ptr %0, ptr %5, align 8, !tbaa !17
  store ptr %1, ptr %6, align 8, !tbaa !8
  store ptr %2, ptr %7, align 8, !tbaa !8
  store i64 %3, ptr %8, align 8, !tbaa !30
  call void @llvm.lifetime.start.p0(i64 8, ptr %9) #10
  %12 = load ptr, ptr %7, align 8, !tbaa !8
  store ptr %12, ptr %9, align 8, !tbaa !60
  call void @llvm.lifetime.start.p0(i64 8, ptr %10) #10
  %13 = load ptr, ptr %6, align 8, !tbaa !8
  store ptr %13, ptr %10, align 8, !tbaa !60
  call void @llvm.lifetime.start.p0(i64 8, ptr %11) #10
  store ptr @ff_tx_tab_16384_float, ptr %11, align 8, !tbaa !39
  %14 = load ptr, ptr %5, align 8, !tbaa !17
  %15 = load ptr, ptr %10, align 8, !tbaa !60
  %16 = load ptr, ptr %9, align 8, !tbaa !60
  %17 = load i64, ptr %8, align 8, !tbaa !30
  call void @ff_tx_fft8192_ns_float_c(ptr noundef %14, ptr noundef %15, ptr noundef %16, i64 noundef %17)
  %18 = load ptr, ptr %5, align 8, !tbaa !17
  %19 = load ptr, ptr %10, align 8, !tbaa !60
  %20 = getelementptr inbounds %struct.AVComplexFloat, ptr %19, i64 8192
  %21 = load ptr, ptr %9, align 8, !tbaa !60
  %22 = getelementptr inbounds %struct.AVComplexFloat, ptr %21, i64 8192
  %23 = load i64, ptr %8, align 8, !tbaa !30
  call void @ff_tx_fft4096_ns_float_c(ptr noundef %18, ptr noundef %20, ptr noundef %22, i64 noundef %23)
  %24 = load ptr, ptr %5, align 8, !tbaa !17
  %25 = load ptr, ptr %10, align 8, !tbaa !60
  %26 = getelementptr inbounds %struct.AVComplexFloat, ptr %25, i64 12288
  %27 = load ptr, ptr %9, align 8, !tbaa !60
  %28 = getelementptr inbounds %struct.AVComplexFloat, ptr %27, i64 12288
  %29 = load i64, ptr %8, align 8, !tbaa !30
  call void @ff_tx_fft4096_ns_float_c(ptr noundef %24, ptr noundef %26, ptr noundef %28, i64 noundef %29)
  %30 = load ptr, ptr %10, align 8, !tbaa !60
  %31 = load ptr, ptr %11, align 8, !tbaa !39
  call void @ff_tx_fft_sr_combine_float_c(ptr noundef %30, ptr noundef %31, i32 noundef 2048)
  call void @llvm.lifetime.end.p0(i64 8, ptr %11) #10
  call void @llvm.lifetime.end.p0(i64 8, ptr %10) #10
  call void @llvm.lifetime.end.p0(i64 8, ptr %9) #10
  ret void
}