; Function Attrs: nofree norecurse nosync nounwind memory(readwrite, inaccessiblemem: none) uwtable
define internal void @ff_tx_fft16384_ns_float_c(ptr readnone captures(none) %0, ptr noundef initializes((0, 128)) %1, ptr noundef readonly captures(none) %2, i64 %3) #10 {
  tail call void @ff_tx_fft4096_ns_float_c(ptr readnone poison, ptr noundef %1, ptr noundef readonly %2, i64 poison)
  %5 = getelementptr inbounds nuw i8, ptr %1, i64 32768
  %6 = getelementptr inbounds nuw i8, ptr %2, i64 32768
  tail call void @ff_tx_fft2048_ns_float_c(ptr readnone poison, ptr noundef nonnull %5, ptr noundef nonnull readonly %6, i64 poison)
  %7 = getelementptr inbounds nuw i8, ptr %1, i64 49152
  %8 = getelementptr inbounds nuw i8, ptr %2, i64 49152
  tail call void @ff_tx_fft2048_ns_float_c(ptr readnone poison, ptr noundef nonnull %7, ptr noundef nonnull readonly %8, i64 poison)
  tail call fastcc void @ff_tx_fft_sr_combine_float_c(ptr noundef %1, ptr noundef nonnull @ff_tx_tab_8192_float, i32 noundef 1024)
  %9 = getelementptr inbounds nuw i8, ptr %1, i64 65536
  %10 = getelementptr inbounds nuw i8, ptr %2, i64 65536
  tail call void @ff_tx_fft4096_ns_float_c(ptr poison, ptr noundef nonnull %9, ptr noundef nonnull %10, i64 poison)
  %11 = getelementptr inbounds nuw i8, ptr %1, i64 98304
  %12 = getelementptr inbounds nuw i8, ptr %2, i64 98304
  tail call void @ff_tx_fft4096_ns_float_c(ptr poison, ptr noundef nonnull %11, ptr noundef nonnull %12, i64 poison)
  tail call fastcc void @ff_tx_fft_sr_combine_float_c(ptr noundef %1, ptr noundef nonnull @ff_tx_tab_16384_float, i32 noundef 2048)
  ret void
}